target datalayout = "e-m:e-p270:32:32-p271:32:32-p272:64:64-i64:64-i128:128-f80:128-n8:16:32:64-S128"
target triple = "x86_64-pc-linux-gnu"

%struct.Abc_Frame_t_ = type { ptr, ptr, ptr, ptr, ptr, ptr, ptr, ptr, ptr, ptr, i32, i32, i32, i32, i32, ptr, float, float, i32, i32, ptr, ptr, ptr, double, double, ptr, ptr, ptr, ptr, ptr, ptr, ptr, ptr, ptr, ptr, ptr, ptr, float, ptr, i32, ptr, ptr, ptr, ptr, ptr, i32, i32, i32, i32, i32, i32, ptr, ptr, ptr, ptr, ptr, ptr, i32, i32, ptr, ptr, ptr, ptr, ptr, ptr, ptr, ptr, ptr, ptr, ptr, ptr, ptr, ptr, ptr, ptr, ptr, ptr, ptr, ptr, ptr, ptr, ptr, ptr, ptr, ptr, ptr, ptr, ptr, ptr }
%struct.Vec_Ptr_t_ = type { i32, i32, ptr }
%struct.Vec_Int_t_ = type { i32, i32, ptr }
%struct.Abc_Ntk_t_ = type { i32, i32, ptr, ptr, ptr, ptr, ptr, ptr, ptr, ptr, ptr, ptr, ptr, [11 x i32], i32, i32, i32, i32, ptr, i32, ptr, ptr, i32, i32, i32, double, i32, %struct.Vec_Int_t_, ptr, ptr, ptr, ptr, ptr, float, i32, ptr, ptr, ptr, ptr, ptr, ptr, ptr, ptr, ptr, ptr, ptr, ptr, ptr, ptr, ptr, ptr, ptr, ptr, ptr, ptr, ptr, ptr }

@s_GlobalFrame = internal global ptr null, align 8
@.str = private unnamed_addr constant [1 x i8] zeroinitializer, align 1
@.str.1 = private unnamed_addr constant [2 x i8] c"1\00", align 1
@.str.5 = private unnamed_addr constant [83 x i8] c"The current network has no primary outputs. Some commands may not work correctly.\0A\00", align 1
@.str.6 = private unnamed_addr constant [7 x i8] c"backup\00", align 1

; Function Attrs: nounwind uwtable
define ptr @Abc_FrameReadFlag(ptr noundef %0) #0 {
  %2 = alloca ptr, align 8
  store ptr %0, ptr %2, align 8, !tbaa !38
  %3 = load ptr, ptr @s_GlobalFrame, align 8, !tbaa !3
  %4 = load ptr, ptr %2, align 8, !tbaa !38
  %5 = call ptr @Cmd_FlagReadByName(ptr noundef %3, ptr noundef %4)
  ret ptr %5
}

; Function Attrs: inlinehint nounwind uwtable
define internal i32 @Vec_PtrSize(ptr noundef %0) #1 {
  %2 = alloca ptr, align 8
  store ptr %0, ptr %2, align 8, !tbaa !25
  %3 = load ptr, ptr %2, align 8, !tbaa !25
  %4 = getelementptr inbounds nuw %struct.Vec_Ptr_t_, ptr %3, i32 0, i32 1
  %5 = load i32, ptr %4, align 4, !tbaa !26
  ret i32 %5
}

; Function Attrs: inlinehint nounwind uwtable
define internal void @Abc_NtkSetStep(ptr noundef %0, i32 noundef %1) #1 {
  %3 = alloca ptr, align 8
  %4 = alloca i32, align 4
  store ptr %0, ptr %3, align 8, !tbaa !108
  store i32 %1, ptr %4, align 4, !tbaa !65
  %5 = load i32, ptr %4, align 4, !tbaa !65
  %6 = load ptr, ptr %3, align 8, !tbaa !108
  %7 = getelementptr inbounds nuw %struct.Abc_Ntk_t_, ptr %6, i32 0, i32 19
  store i32 %5, ptr %7, align 8, !tbaa !121
  ret void
}

; Function Attrs: inlinehint nounwind uwtable
define internal i32 @Abc_NtkStep(ptr noundef %0) #1 {
  %2 = alloca ptr, align 8
  store ptr %0, ptr %2, align 8, !tbaa !108
  %3 = load ptr, ptr %2, align 8, !tbaa !108
  %4 = getelementptr inbounds nuw %struct.Abc_Ntk_t_, ptr %3, i32 0, i32 19
  %5 = load i32, ptr %4, align 8, !tbaa !121
  ret i32 %5
}

; Function Attrs: inlinehint nounwind uwtable
define internal void @Abc_NtkSetBackup(ptr noundef %0, ptr noundef %1) #1 {
  %3 = alloca ptr, align 8
  %4 = alloca ptr, align 8
  store ptr %0, ptr %3, align 8, !tbaa !108
  store ptr %1, ptr %4, align 8, !tbaa !108
  %5 = load ptr, ptr %4, align 8, !tbaa !108
  %6 = load ptr, ptr %3, align 8, !tbaa !108
  %7 = getelementptr inbounds nuw %struct.Abc_Ntk_t_, ptr %6, i32 0, i32 18
  store ptr %5, ptr %7, align 8, !tbaa !113
  ret void
}

; Function Attrs: inlinehint nounwind uwtable
define internal ptr @Abc_NtkBackup(ptr noundef %0) #1 {
  %2 = alloca ptr, align 8
  store ptr %0, ptr %2, align 8, !tbaa !108
  %3 = load ptr, ptr %2, align 8, !tbaa !108
  %4 = getelementptr inbounds nuw %struct.Abc_Ntk_t_, ptr %3, i32 0, i32 18
  %5 = load ptr, ptr %4, align 8, !tbaa !113
  ret ptr %5
}

; Function Attrs: nounwind uwtable
define i32 @Abc_FrameIsFlagEnabled(ptr noundef %0) #0 {
  %2 = alloca i32, align 4
  %3 = alloca ptr, align 8
  %4 = alloca ptr, align 8
  %5 = alloca i32, align 4
  store ptr %0, ptr %3, align 8, !tbaa !38
  call void @llvm.lifetime.start.p0(i64 8, ptr %4) #10
  %6 = load ptr, ptr %3, align 8, !tbaa !38
  %7 = call ptr @Abc_FrameReadFlag(ptr noundef %6)
  store ptr %7, ptr %4, align 8, !tbaa !38
  %8 = load ptr, ptr %4, align 8, !tbaa !38
  %9 = icmp eq ptr %8, null
  br i1 %9, label %10, label %11

10:                                               ; preds = %1
  store i32 0, ptr %2, align 4
  store i32 1, ptr %5, align 4
  br label %21

11:                                               ; preds = %1
  %12 = load ptr, ptr %4, align 8, !tbaa !38
  %13 = call i32 @strcmp(ptr noundef %12, ptr noundef @.str) #11
  %14 = icmp ne i32 %13, 0
  br i1 %14, label %15, label %20

15:                                               ; preds = %11
  %16 = load ptr, ptr %4, align 8, !tbaa !38
  %17 = call i32 @strcmp(ptr noundef %16, ptr noundef @.str.1) #11
  %18 = icmp ne i32 %17, 0
  br i1 %18, label %19, label %20

19:                                               ; preds = %15
  store i32 0, ptr %2, align 4
  store i32 1, ptr %5, align 4
  br label %21

20:                                               ; preds = %15, %11
  store i32 1, ptr %2, align 4
  store i32 1, ptr %5, align 4
  br label %21

21:                                               ; preds = %20, %19, %10
  call void @llvm.lifetime.end.p0(i64 8, ptr %4) #10
  %22 = load i32, ptr %2, align 4
  ret i32 %22
}

; Function Attrs: inlinehint nounwind uwtable
define internal i32 @Abc_NtkPoNum(ptr noundef %0) #1 {
  %2 = alloca ptr, align 8
  store ptr %0, ptr %2, align 8, !tbaa !108
  %3 = load ptr, ptr %2, align 8, !tbaa !108
  %4 = getelementptr inbounds nuw %struct.Abc_Ntk_t_, ptr %3, i32 0, i32 7
  %5 = load ptr, ptr %4, align 8, !tbaa !122
  %6 = call i32 @Vec_PtrSize(ptr noundef %5)
  ret i32 %6
}

; Function Attrs: nounwind uwtable
define void @Abc_FrameReplaceCurrentNetwork(ptr noundef %0, ptr noundef %1) #0 {
  %3 = alloca ptr, align 8
  %4 = alloca ptr, align 8
  store ptr %0, ptr %3, align 8, !tbaa !3
  store ptr %1, ptr %4, align 8, !tbaa !108
  %5 = load ptr, ptr %4, align 8, !tbaa !108
  %6 = icmp eq ptr %5, null
  br i1 %6, label %7, label %8

7:                                                ; preds = %2
  br label %55

8:                                                ; preds = %2
  %9 = load ptr, ptr %4, align 8, !tbaa !108
  %10 = call i32 @Abc_NtkPoNum(ptr noundef %9)
  %11 = icmp eq i32 %10, 0
  br i1 %11, label %12, label %13

12:                                               ; preds = %8
  call void (i32, ptr, ...) @Abc_Print(i32 noundef 0, ptr noundef @.str.5)
  br label %13

13:                                               ; preds = %12, %8
  %14 = load ptr, ptr %3, align 8, !tbaa !3
  %15 = getelementptr inbounds nuw %struct.Abc_Frame_t_, ptr %14, i32 0, i32 6
  %16 = load ptr, ptr %15, align 8, !tbaa !107
  %17 = icmp ne ptr %16, null
  br i1 %17, label %18, label %35

18:                                               ; preds = %13
  %19 = call i32 @Abc_FrameIsFlagEnabled(ptr noundef @.str.6)
  %20 = icmp ne i32 %19, 0
  br i1 %20, label %21, label %35

21:                                               ; preds = %18
  %22 = load ptr, ptr %4, align 8, !tbaa !108
  %23 = load ptr, ptr %3, align 8, !tbaa !3
  %24 = getelementptr inbounds nuw %struct.Abc_Frame_t_, ptr %23, i32 0, i32 6
  %25 = load ptr, ptr %24, align 8, !tbaa !107
  %26 = call ptr @Abc_NtkBackup(ptr noundef %25)
  call void @Abc_NtkSetBackup(ptr noundef %22, ptr noundef %26)
  %27 = load ptr, ptr %4, align 8, !tbaa !108
  %28 = load ptr, ptr %3, align 8, !tbaa !3
  %29 = getelementptr inbounds nuw %struct.Abc_Frame_t_, ptr %28, i32 0, i32 6
  %30 = load ptr, ptr %29, align 8, !tbaa !107
  %31 = call i32 @Abc_NtkStep(ptr noundef %30)
  call void @Abc_NtkSetStep(ptr noundef %27, i32 noundef %31)
  %32 = load ptr, ptr %3, align 8, !tbaa !3
  %33 = getelementptr inbounds nuw %struct.Abc_Frame_t_, ptr %32, i32 0, i32 6
  %34 = load ptr, ptr %33, align 8, !tbaa !107
  call void @Abc_NtkDelete(ptr noundef %34)
  br label %51

35:                                               ; preds = %18, %13
  %36 = load ptr, ptr %4, align 8, !tbaa !108
  call void @Abc_NtkSetBackup(ptr noundef %36, ptr noundef null)
  %37 = load ptr, ptr %4, align 8, !tbaa !108
  %38 = load ptr, ptr %3, align 8, !tbaa !3
  %39 = getelementptr inbounds nuw %struct.Abc_Frame_t_, ptr %38, i32 0, i32 10
  %40 = load i32, ptr %39, align 8, !tbaa !88
  %41 = add nsw i32 %40, 1
  store i32 %41, ptr %39, align 8, !tbaa !88
  call void @Abc_NtkSetStep(ptr noundef %37, i32 noundef %41)
  %42 = load ptr, ptr %3, align 8, !tbaa !3
  %43 = getelementptr inbounds nuw %struct.Abc_Frame_t_, ptr %42, i32 0, i32 6
  %44 = load ptr, ptr %43, align 8, !tbaa !107
  %45 = icmp ne ptr %44, null
  br i1 %45, label %46, label %50

46:                                               ; preds = %35
  %47 = load ptr, ptr %3, align 8, !tbaa !3
  %48 = getelementptr inbounds nuw %struct.Abc_Frame_t_, ptr %47, i32 0, i32 6
  %49 = load ptr, ptr %48, align 8, !tbaa !107
  call void @Abc_NtkDelete(ptr noundef %49)
  br label %50

50:                                               ; preds = %46, %35
  br label %51

51:                                               ; preds = %50, %21
  %52 = load ptr, ptr %4, align 8, !tbaa !108
  %53 = load ptr, ptr %3, align 8, !tbaa !3
  %54 = getelementptr inbounds nuw %struct.Abc_Frame_t_, ptr %53, i32 0, i32 6
  store ptr %52, ptr %54, align 8, !tbaa !107
  br label %55

55:                                               ; preds = %51, %7
  ret void
}