; Function Attrs: nounwind uwtable
define void @Abc_FrameReplaceCurrentNetwork(ptr noundef captures(none) %0, ptr noundef %1) local_unnamed_addr #1 {
  %3 = icmp eq ptr %1, null
  br i1 %3, label %32, label %4

4:                                                ; preds = %2
  %5 = getelementptr i8, ptr %1, i64 48
  %.val19 = load ptr, ptr %5, align 8, !tbaa !112
  %6 = getelementptr i8, ptr %.val19, i64 4
  %.val19.val = load i32, ptr %6, align 4, !tbaa !25
  %7 = icmp eq i32 %.val19.val, 0
  br i1 %7, label %8, label %9

8:                                                ; preds = %4
  tail call void (i32, ptr, ...) @Abc_Print(i32 poison, ptr nonnull poison)
  br label %9

9:                                                ; preds = %8, %4
  %10 = getelementptr inbounds nuw i8, ptr %0, i64 48
  %11 = load ptr, ptr %10, align 8, !tbaa !96
  %.not = icmp eq ptr %11, null
  br i1 %.not, label %Abc_FrameIsFlagEnabled.exit.thread, label %12

12:                                               ; preds = %9
  %13 = load ptr, ptr @s_GlobalFrame, align 8, !tbaa !3
  %14 = tail call ptr @Cmd_FlagReadByName(ptr noundef %13, ptr noundef nonnull @.str.6) #20
  %15 = icmp eq ptr %14, null
  br i1 %15, label %Abc_FrameIsFlagEnabled.exit.thread, label %16

16:                                               ; preds = %12
  %strcmpload.i = load i8, ptr %14, align 1
  switch i8 %strcmpload.i, label %Abc_FrameIsFlagEnabled.exit.thread [
    i8 0, label %Abc_FrameIsFlagEnabled.exit
    i8 49, label %.tail.i
  ]

.tail.i:                                          ; preds = %16
  %17 = getelementptr inbounds nuw i8, ptr %14, i64 1
  %18 = load i8, ptr %17, align 1
  %19 = icmp eq i8 %18, 0
  br i1 %19, label %Abc_FrameIsFlagEnabled.exit, label %Abc_FrameIsFlagEnabled.exit.thread

Abc_FrameIsFlagEnabled.exit:                      ; preds = %.tail.i, %16
  %20 = load ptr, ptr %10, align 8, !tbaa !96
  %21 = getelementptr i8, ptr %20, i64 160
  %.val = load ptr, ptr %21, align 8, !tbaa !97
  %22 = getelementptr inbounds nuw i8, ptr %1, i64 160
  store ptr %.val, ptr %22, align 8, !tbaa !97
  %23 = getelementptr i8, ptr %20, i64 168
  %.val18 = load i32, ptr %23, align 8, !tbaa !109
  %24 = getelementptr inbounds nuw i8, ptr %1, i64 168
  store i32 %.val18, ptr %24, align 8, !tbaa !109
  br label %.sink.split

Abc_FrameIsFlagEnabled.exit.thread:               ; preds = %16, %.tail.i, %12, %9
  %25 = getelementptr inbounds nuw i8, ptr %1, i64 160
  store ptr null, ptr %25, align 8, !tbaa !97
  %26 = getelementptr inbounds nuw i8, ptr %0, i64 80
  %27 = load i32, ptr %26, align 8, !tbaa !82
  %28 = add nsw i32 %27, 1
  store i32 %28, ptr %26, align 8, !tbaa !82
  %29 = getelementptr inbounds nuw i8, ptr %1, i64 168
  store i32 %28, ptr %29, align 8, !tbaa !109
  %30 = load ptr, ptr %10, align 8, !tbaa !96
  %.not17 = icmp eq ptr %30, null
  br i1 %.not17, label %31, label %.sink.split

.sink.split:                                      ; preds = %Abc_FrameIsFlagEnabled.exit.thread, %Abc_FrameIsFlagEnabled.exit
  %.sink = phi ptr [ %20, %Abc_FrameIsFlagEnabled.exit ], [ %30, %Abc_FrameIsFlagEnabled.exit.thread ]
  tail call void @Abc_NtkDelete(ptr noundef %.sink) #20
  br label %31

31:                                               ; preds = %.sink.split, %Abc_FrameIsFlagEnabled.exit.thread
  store ptr %1, ptr %10, align 8, !tbaa !96
  br label %32

32:                                               ; preds = %2, %31
  ret void
}